target datalayout = "e-m:e-p270:32:32-p271:32:32-p272:64:64-i64:64-i128:128-f80:128-n8:16:32:64-S128"
target triple = "x86_64-pc-linux-gnu"

%struct.ForEachState = type { ptr, i32 }
%union.ListCell = type { ptr }
%struct.List = type { i32, i32, i32, ptr, [0 x %union.ListCell] }
%struct.SubPlan = type { %struct.Expr, i32, ptr, ptr, i32, ptr, i32, i32, i32, i8, i8, i8, ptr, ptr, ptr, double, double }
%struct.Expr = type { i32 }

; Function Attrs: nounwind uwtable
define dso_local void @SS_compute_initplan_cost(ptr noundef %0, ptr noundef %1, ptr noundef %2) #0 {
  %4 = alloca ptr, align 8
  %5 = alloca ptr, align 8
  %6 = alloca ptr, align 8
  %7 = alloca double, align 8
  %8 = alloca i8, align 1
  %9 = alloca ptr, align 8
  %10 = alloca %struct.ForEachState, align 8
  %11 = alloca ptr, align 8
  store ptr %0, ptr %4, align 8
  store ptr %1, ptr %5, align 8
  store ptr %2, ptr %6, align 8
  call void @llvm.lifetime.start.p0(i64 8, ptr %7) #8
  call void @llvm.lifetime.start.p0(i64 1, ptr %8) #8
  call void @llvm.lifetime.start.p0(i64 8, ptr %9) #8
  store double 0.000000e+00, ptr %7, align 8
  store i8 0, ptr %8, align 1
  call void @llvm.lifetime.start.p0(i64 16, ptr %10) #8
  %12 = getelementptr inbounds nuw %struct.ForEachState, ptr %10, i32 0, i32 0
  %13 = load ptr, ptr %4, align 8
  store ptr %13, ptr %12, align 8
  %14 = getelementptr inbounds nuw %struct.ForEachState, ptr %10, i32 0, i32 1
  store i32 0, ptr %14, align 8
  %15 = getelementptr i8, ptr %10, i64 12
  call void @llvm.memset.p0.i64(ptr align 4 %15, i8 0, i64 4, i1 false)
  br label %16

16:                                               ; preds = %60, %3
  %17 = getelementptr inbounds nuw %struct.ForEachState, ptr %10, i32 0, i32 0
  %18 = load ptr, ptr %17, align 8
  %19 = icmp ne ptr %18, null
  br i1 %19, label %20, label %37

20:                                               ; preds = %16
  %21 = getelementptr inbounds nuw %struct.ForEachState, ptr %10, i32 0, i32 1
  %22 = load i32, ptr %21, align 8
  %23 = getelementptr inbounds nuw %struct.ForEachState, ptr %10, i32 0, i32 0
  %24 = load ptr, ptr %23, align 8
  %25 = getelementptr inbounds nuw %struct.List, ptr %24, i32 0, i32 1
  %26 = load i32, ptr %25, align 4
  %27 = icmp slt i32 %22, %26
  br i1 %27, label %28, label %37

28:                                               ; preds = %20
  %29 = getelementptr inbounds nuw %struct.ForEachState, ptr %10, i32 0, i32 0
  %30 = load ptr, ptr %29, align 8
  %31 = getelementptr inbounds nuw %struct.List, ptr %30, i32 0, i32 3
  %32 = load ptr, ptr %31, align 8
  %33 = getelementptr inbounds nuw %struct.ForEachState, ptr %10, i32 0, i32 1
  %34 = load i32, ptr %33, align 8
  %35 = sext i32 %34 to i64
  %36 = getelementptr inbounds %union.ListCell, ptr %32, i64 %35
  store ptr %36, ptr %9, align 8
  br label %38

37:                                               ; preds = %20, %16
  store ptr null, ptr %9, align 8
  br label %38

38:                                               ; preds = %37, %28
  %39 = phi i32 [ 1, %28 ], [ 0, %37 ]
  %40 = icmp ne i32 %39, 0
  br i1 %40, label %42, label %41

41:                                               ; preds = %38
  call void @llvm.lifetime.end.p0(i64 16, ptr %10) #8
  br label %64

42:                                               ; preds = %38
  call void @llvm.lifetime.start.p0(i64 8, ptr %11) #8
  %43 = load ptr, ptr %9, align 8
  %44 = load ptr, ptr %43, align 8
  store ptr %44, ptr %11, align 8
  %45 = load ptr, ptr %11, align 8
  %46 = getelementptr inbounds nuw %struct.SubPlan, ptr %45, i32 0, i32 15
  %47 = load double, ptr %46, align 8
  %48 = load ptr, ptr %11, align 8
  %49 = getelementptr inbounds nuw %struct.SubPlan, ptr %48, i32 0, i32 16
  %50 = load double, ptr %49, align 8
  %51 = fadd double %47, %50
  %52 = load double, ptr %7, align 8
  %53 = fadd double %52, %51
  store double %53, ptr %7, align 8
  %54 = load ptr, ptr %11, align 8
  %55 = getelementptr inbounds nuw %struct.SubPlan, ptr %54, i32 0, i32 11
  %56 = load i8, ptr %55, align 2, !range !4, !noundef !5
  %57 = trunc i8 %56 to i1
  br i1 %57, label %59, label %58

58:                                               ; preds = %42
  store i8 1, ptr %8, align 1
  br label %59

59:                                               ; preds = %58, %42
  call void @llvm.lifetime.end.p0(i64 8, ptr %11) #8
  br label %60

60:                                               ; preds = %59
  %61 = getelementptr inbounds nuw %struct.ForEachState, ptr %10, i32 0, i32 1
  %62 = load i32, ptr %61, align 8
  %63 = add i32 %62, 1
  store i32 %63, ptr %61, align 8
  br label %16, !llvm.loop !19

64:                                               ; preds = %41
  %65 = load double, ptr %7, align 8
  %66 = load ptr, ptr %5, align 8
  store double %65, ptr %66, align 8
  %67 = load i8, ptr %8, align 1, !range !4, !noundef !5
  %68 = trunc i8 %67 to i1
  %69 = load ptr, ptr %6, align 8
  %70 = zext i1 %68 to i8
  store i8 %70, ptr %69, align 1
  call void @llvm.lifetime.end.p0(i64 8, ptr %9) #8
  call void @llvm.lifetime.end.p0(i64 1, ptr %8) #8
  call void @llvm.lifetime.end.p0(i64 8, ptr %7) #8
  ret void
}