; Function Attrs: nofree norecurse nosync nounwind memory(read, argmem: readwrite, inaccessiblemem: none) uwtable
define dso_local void @SS_compute_initplan_cost(ptr noundef readonly captures(address_is_null) %0, ptr noundef writeonly captures(none) %1, ptr noundef writeonly captures(none) %2) local_unnamed_addr #5 {
  %.not = icmp eq ptr %0, null
  br i1 %.not, label %._crit_edge, label %.lr.ph

.lr.ph:                                           ; preds = %3
  %4 = getelementptr inbounds nuw i8, ptr %0, i64 4
  %5 = load i32, ptr %4, align 4
  %6 = icmp sgt i32 %5, 0
  br i1 %6, label %.lr.ph32, label %._crit_edge

.lr.ph32:                                         ; preds = %.lr.ph
  %7 = getelementptr inbounds nuw i8, ptr %0, i64 16
  %8 = load ptr, ptr %7, align 8
  %wide.trip.count = zext nneg i32 %5 to i64
  br label %9

._crit_edge:                                      ; preds = %9, %.lr.ph, %3
  %.013.lcssa = phi i8 [ 0, %3 ], [ 0, %.lr.ph ], [ %spec.select, %9 ]
  %.0.lcssa = phi double [ 0.000000e+00, %3 ], [ 0.000000e+00, %.lr.ph ], [ %17, %9 ]
  store double %.0.lcssa, ptr %1, align 8
  store i8 %.013.lcssa, ptr %2, align 1
  ret void

9:                                                ; preds = %.lr.ph32, %9
  %indvars.iv = phi i64 [ 0, %.lr.ph32 ], [ %indvars.iv.next, %9 ]
  %.0132030 = phi i8 [ 0, %.lr.ph32 ], [ %spec.select, %9 ]
  %.02129 = phi double [ 0.000000e+00, %.lr.ph32 ], [ %17, %9 ]
  %10 = getelementptr inbounds nuw %union.ListCell, ptr %8, i64 %indvars.iv
  %11 = load ptr, ptr %10, align 8
  %12 = getelementptr inbounds nuw i8, ptr %11, i64 80
  %13 = load double, ptr %12, align 8
  %14 = getelementptr inbounds nuw i8, ptr %11, i64 88
  %15 = load double, ptr %14, align 8
  %16 = fadd double %13, %15
  %17 = fadd double %.02129, %16
  %18 = getelementptr inbounds nuw i8, ptr %11, i64 54
  %19 = load i8, ptr %18, align 2, !range !4, !noundef !5
  %20 = trunc nuw i8 %19 to i1
  %spec.select = select i1 %20, i8 %.0132030, i8 1
  %indvars.iv.next = add nuw nsw i64 %indvars.iv, 1
  %exitcond.not = icmp eq i64 %indvars.iv.next, %wide.trip.count
  br i1 %exitcond.not, label %._crit_edge, label %9
}